target datalayout = "e-m:e-p270:32:32-p271:32:32-p272:64:64-i64:64-i128:128-f80:128-n8:16:32:64-S128"
target triple = "x86_64-pc-linux-gnu"

%struct.Node = type { i32 }
%struct.BoolExpr = type { %struct.Expr, i32, ptr, i32 }
%struct.Expr = type { i32 }
%struct.ForEachState = type { ptr, i32 }
%struct.List = type { i32, i32, i32, ptr, [0 x %union.ListCell] }
%union.ListCell = type { ptr }

; Function Attrs: inlinehint nounwind uwtable
define internal zeroext i1 @is_andclause(ptr noundef %0) #1 {
  %2 = alloca ptr, align 8
  store ptr %0, ptr %2, align 8
  %3 = load ptr, ptr %2, align 8
  %4 = icmp ne ptr %3, null
  br i1 %4, label %5, label %15

5:                                                ; preds = %1
  %6 = load ptr, ptr %2, align 8
  %7 = getelementptr inbounds nuw %struct.Node, ptr %6, i32 0, i32 0
  %8 = load i32, ptr %7, align 4
  %9 = icmp eq i32 %8, 21
  br i1 %9, label %10, label %15

10:                                               ; preds = %5
  %11 = load ptr, ptr %2, align 8
  %12 = getelementptr inbounds nuw %struct.BoolExpr, ptr %11, i32 0, i32 1
  %13 = load i32, ptr %12, align 4
  %14 = icmp eq i32 %13, 0
  br label %15

15:                                               ; preds = %10, %5, %1
  %16 = phi i1 [ false, %5 ], [ false, %1 ], [ %14, %10 ]
  ret i1 %16
}

; Function Attrs: inlinehint nounwind uwtable
define internal zeroext i1 @is_orclause(ptr noundef %0) #1 {
  %2 = alloca ptr, align 8
  store ptr %0, ptr %2, align 8
  %3 = load ptr, ptr %2, align 8
  %4 = icmp ne ptr %3, null
  br i1 %4, label %5, label %15

5:                                                ; preds = %1
  %6 = load ptr, ptr %2, align 8
  %7 = getelementptr inbounds nuw %struct.Node, ptr %6, i32 0, i32 0
  %8 = load i32, ptr %7, align 4
  %9 = icmp eq i32 %8, 21
  br i1 %9, label %10, label %15

10:                                               ; preds = %5
  %11 = load ptr, ptr %2, align 8
  %12 = getelementptr inbounds nuw %struct.BoolExpr, ptr %11, i32 0, i32 1
  %13 = load i32, ptr %12, align 4
  %14 = icmp eq i32 %13, 1
  br label %15

15:                                               ; preds = %10, %5, %1
  %16 = phi i1 [ false, %5 ], [ false, %1 ], [ %14, %10 ]
  ret i1 %16
}

; Function Attrs: nounwind uwtable
define internal ptr @make_sub_restrictinfos(ptr noundef %0, ptr noundef %1, i1 noundef zeroext %2, i1 noundef zeroext %3, i1 noundef zeroext %4, i1 noundef zeroext %5, i32 noundef %6, ptr noundef %7, ptr noundef %8, ptr noundef %9) #0 {
  %11 = alloca ptr, align 8
  %12 = alloca ptr, align 8
  %13 = alloca ptr, align 8
  %14 = alloca i8, align 1
  %15 = alloca i8, align 1
  %16 = alloca i8, align 1
  %17 = alloca i8, align 1
  %18 = alloca i32, align 4
  %19 = alloca ptr, align 8
  %20 = alloca ptr, align 8
  %21 = alloca ptr, align 8
  %22 = alloca ptr, align 8
  %23 = alloca ptr, align 8
  %24 = alloca %struct.ForEachState, align 8
  %25 = alloca ptr, align 8
  %26 = alloca ptr, align 8
  %27 = alloca %struct.ForEachState, align 8
  store ptr %0, ptr %12, align 8
  store ptr %1, ptr %13, align 8
  %28 = zext i1 %2 to i8
  store i8 %28, ptr %14, align 1
  %29 = zext i1 %3 to i8
  store i8 %29, ptr %15, align 1
  %30 = zext i1 %4 to i8
  store i8 %30, ptr %16, align 1
  %31 = zext i1 %5 to i8
  store i8 %31, ptr %17, align 1
  store i32 %6, ptr %18, align 4
  store ptr %7, ptr %19, align 8
  store ptr %8, ptr %20, align 8
  store ptr %9, ptr %21, align 8
  %32 = load ptr, ptr %13, align 8
  %33 = call zeroext i1 @is_orclause(ptr noundef %32)
  br i1 %33, label %34, label %107

34:                                               ; preds = %10
  call void @llvm.lifetime.start.p0(i64 8, ptr %22) #6
  store ptr null, ptr %22, align 8
  call void @llvm.lifetime.start.p0(i64 8, ptr %23) #6
  call void @llvm.lifetime.start.p0(i64 16, ptr %24) #6
  %35 = getelementptr inbounds nuw %struct.ForEachState, ptr %24, i32 0, i32 0
  %36 = load ptr, ptr %13, align 8
  %37 = getelementptr inbounds nuw %struct.BoolExpr, ptr %36, i32 0, i32 2
  %38 = load ptr, ptr %37, align 8
  store ptr %38, ptr %35, align 8
  %39 = getelementptr inbounds nuw %struct.ForEachState, ptr %24, i32 0, i32 1
  store i32 0, ptr %39, align 8
  %40 = getelementptr i8, ptr %24, i64 12
  call void @llvm.memset.p0.i64(ptr align 4 %40, i8 0, i64 4, i1 false)
  br label %41

41:                                               ; preds = %85, %34
  %42 = getelementptr inbounds nuw %struct.ForEachState, ptr %24, i32 0, i32 0
  %43 = load ptr, ptr %42, align 8
  %44 = icmp ne ptr %43, null
  br i1 %44, label %45, label %62

45:                                               ; preds = %41
  %46 = getelementptr inbounds nuw %struct.ForEachState, ptr %24, i32 0, i32 1
  %47 = load i32, ptr %46, align 8
  %48 = getelementptr inbounds nuw %struct.ForEachState, ptr %24, i32 0, i32 0
  %49 = load ptr, ptr %48, align 8
  %50 = getelementptr inbounds nuw %struct.List, ptr %49, i32 0, i32 1
  %51 = load i32, ptr %50, align 4
  %52 = icmp slt i32 %47, %51
  br i1 %52, label %53, label %62

53:                                               ; preds = %45
  %54 = getelementptr inbounds nuw %struct.ForEachState, ptr %24, i32 0, i32 0
  %55 = load ptr, ptr %54, align 8
  %56 = getelementptr inbounds nuw %struct.List, ptr %55, i32 0, i32 3
  %57 = load ptr, ptr %56, align 8
  %58 = getelementptr inbounds nuw %struct.ForEachState, ptr %24, i32 0, i32 1
  %59 = load i32, ptr %58, align 8
  %60 = sext i32 %59 to i64
  %61 = getelementptr inbounds %union.ListCell, ptr %57, i64 %60
  store ptr %61, ptr %23, align 8
  br label %63

62:                                               ; preds = %45, %41
  store ptr null, ptr %23, align 8
  br label %63

63:                                               ; preds = %62, %53
  %64 = phi i32 [ 1, %53 ], [ 0, %62 ]
  %65 = icmp ne i32 %64, 0
  br i1 %65, label %67, label %66

66:                                               ; preds = %63
  call void @llvm.lifetime.end.p0(i64 16, ptr %24) #6
  br label %89

67:                                               ; preds = %63
  %68 = load ptr, ptr %22, align 8
  %69 = load ptr, ptr %12, align 8
  %70 = load ptr, ptr %23, align 8
  %71 = load ptr, ptr %70, align 8
  %72 = load i8, ptr %14, align 1, !range !4, !noundef !5
  %73 = trunc i8 %72 to i1
  %74 = load i8, ptr %15, align 1, !range !4, !noundef !5
  %75 = trunc i8 %74 to i1
  %76 = load i8, ptr %16, align 1, !range !4, !noundef !5
  %77 = trunc i8 %76 to i1
  %78 = load i8, ptr %17, align 1, !range !4, !noundef !5
  %79 = trunc i8 %78 to i1
  %80 = load i32, ptr %18, align 4
  %81 = load ptr, ptr %20, align 8
  %82 = load ptr, ptr %21, align 8
  %83 = call ptr @make_sub_restrictinfos(ptr noundef %69, ptr noundef %71, i1 noundef zeroext %73, i1 noundef zeroext %75, i1 noundef zeroext %77, i1 noundef zeroext %79, i32 noundef %80, ptr noundef null, ptr noundef %81, ptr noundef %82)
  %84 = call ptr @lappend(ptr noundef %68, ptr noundef %83)
  store ptr %84, ptr %22, align 8
  br label %85

85:                                               ; preds = %67
  %86 = getelementptr inbounds nuw %struct.ForEachState, ptr %24, i32 0, i32 1
  %87 = load i32, ptr %86, align 8
  %88 = add i32 %87, 1
  store i32 %88, ptr %86, align 8
  br label %41, !llvm.loop !6

89:                                               ; preds = %66
  %90 = load ptr, ptr %12, align 8
  %91 = load ptr, ptr %13, align 8
  %92 = load ptr, ptr %22, align 8
  %93 = call ptr @make_orclause(ptr noundef %92)
  %94 = load i8, ptr %14, align 1, !range !4, !noundef !5
  %95 = trunc i8 %94 to i1
  %96 = load i8, ptr %15, align 1, !range !4, !noundef !5
  %97 = trunc i8 %96 to i1
  %98 = load i8, ptr %16, align 1, !range !4, !noundef !5
  %99 = trunc i8 %98 to i1
  %100 = load i8, ptr %17, align 1, !range !4, !noundef !5
  %101 = trunc i8 %100 to i1
  %102 = load i32, ptr %18, align 4
  %103 = load ptr, ptr %19, align 8
  %104 = load ptr, ptr %20, align 8
  %105 = load ptr, ptr %21, align 8
  %106 = call ptr @make_plain_restrictinfo(ptr noundef %90, ptr noundef %91, ptr noundef %93, i1 noundef zeroext %95, i1 noundef zeroext %97, i1 noundef zeroext %99, i1 noundef zeroext %101, i32 noundef %102, ptr noundef %103, ptr noundef %104, ptr noundef %105)
  store ptr %106, ptr %11, align 8
  call void @llvm.lifetime.end.p0(i64 8, ptr %23) #6
  call void @llvm.lifetime.end.p0(i64 8, ptr %22) #6
  br label %185

107:                                              ; preds = %10
  %108 = load ptr, ptr %13, align 8
  %109 = call zeroext i1 @is_andclause(ptr noundef %108)
  br i1 %109, label %110, label %169

110:                                              ; preds = %107
  call void @llvm.lifetime.start.p0(i64 8, ptr %25) #6
  store ptr null, ptr %25, align 8
  call void @llvm.lifetime.start.p0(i64 8, ptr %26) #6
  call void @llvm.lifetime.start.p0(i64 16, ptr %27) #6
  %111 = getelementptr inbounds nuw %struct.ForEachState, ptr %27, i32 0, i32 0
  %112 = load ptr, ptr %13, align 8
  %113 = getelementptr inbounds nuw %struct.BoolExpr, ptr %112, i32 0, i32 2
  %114 = load ptr, ptr %113, align 8
  store ptr %114, ptr %111, align 8
  %115 = getelementptr inbounds nuw %struct.ForEachState, ptr %27, i32 0, i32 1
  store i32 0, ptr %115, align 8
  %116 = getelementptr i8, ptr %27, i64 12
  call void @llvm.memset.p0.i64(ptr align 4 %116, i8 0, i64 4, i1 false)
  br label %117

117:                                              ; preds = %162, %110
  %118 = getelementptr inbounds nuw %struct.ForEachState, ptr %27, i32 0, i32 0
  %119 = load ptr, ptr %118, align 8
  %120 = icmp ne ptr %119, null
  br i1 %120, label %121, label %138

121:                                              ; preds = %117
  %122 = getelementptr inbounds nuw %struct.ForEachState, ptr %27, i32 0, i32 1
  %123 = load i32, ptr %122, align 8
  %124 = getelementptr inbounds nuw %struct.ForEachState, ptr %27, i32 0, i32 0
  %125 = load ptr, ptr %124, align 8
  %126 = getelementptr inbounds nuw %struct.List, ptr %125, i32 0, i32 1
  %127 = load i32, ptr %126, align 4
  %128 = icmp slt i32 %123, %127
  br i1 %128, label %129, label %138

129:                                              ; preds = %121
  %130 = getelementptr inbounds nuw %struct.ForEachState, ptr %27, i32 0, i32 0
  %131 = load ptr, ptr %130, align 8
  %132 = getelementptr inbounds nuw %struct.List, ptr %131, i32 0, i32 3
  %133 = load ptr, ptr %132, align 8
  %134 = getelementptr inbounds nuw %struct.ForEachState, ptr %27, i32 0, i32 1
  %135 = load i32, ptr %134, align 8
  %136 = sext i32 %135 to i64
  %137 = getelementptr inbounds %union.ListCell, ptr %133, i64 %136
  store ptr %137, ptr %26, align 8
  br label %139

138:                                              ; preds = %121, %117
  store ptr null, ptr %26, align 8
  br label %139

139:                                              ; preds = %138, %129
  %140 = phi i32 [ 1, %129 ], [ 0, %138 ]
  %141 = icmp ne i32 %140, 0
  br i1 %141, label %143, label %142

142:                                              ; preds = %139
  call void @llvm.lifetime.end.p0(i64 16, ptr %27) #6
  br label %166

143:                                              ; preds = %139
  %144 = load ptr, ptr %25, align 8
  %145 = load ptr, ptr %12, align 8
  %146 = load ptr, ptr %26, align 8
  %147 = load ptr, ptr %146, align 8
  %148 = load i8, ptr %14, align 1, !range !4, !noundef !5
  %149 = trunc i8 %148 to i1
  %150 = load i8, ptr %15, align 1, !range !4, !noundef !5
  %151 = trunc i8 %150 to i1
  %152 = load i8, ptr %16, align 1, !range !4, !noundef !5
  %153 = trunc i8 %152 to i1
  %154 = load i8, ptr %17, align 1, !range !4, !noundef !5
  %155 = trunc i8 %154 to i1
  %156 = load i32, ptr %18, align 4
  %157 = load ptr, ptr %19, align 8
  %158 = load ptr, ptr %20, align 8
  %159 = load ptr, ptr %21, align 8
  %160 = call ptr @make_sub_restrictinfos(ptr noundef %145, ptr noundef %147, i1 noundef zeroext %149, i1 noundef zeroext %151, i1 noundef zeroext %153, i1 noundef zeroext %155, i32 noundef %156, ptr noundef %157, ptr noundef %158, ptr noundef %159)
  %161 = call ptr @lappend(ptr noundef %144, ptr noundef %160)
  store ptr %161, ptr %25, align 8
  br label %162

162:                                              ; preds = %143
  %163 = getelementptr inbounds nuw %struct.ForEachState, ptr %27, i32 0, i32 1
  %164 = load i32, ptr %163, align 8
  %165 = add i32 %164, 1
  store i32 %165, ptr %163, align 8
  br label %117, !llvm.loop !8

166:                                              ; preds = %142
  %167 = load ptr, ptr %25, align 8
  %168 = call ptr @make_andclause(ptr noundef %167)
  store ptr %168, ptr %11, align 8
  call void @llvm.lifetime.end.p0(i64 8, ptr %26) #6
  call void @llvm.lifetime.end.p0(i64 8, ptr %25) #6
  br label %185

169:                                              ; preds = %107
  %170 = load ptr, ptr %12, align 8
  %171 = load ptr, ptr %13, align 8
  %172 = load i8, ptr %14, align 1, !range !4, !noundef !5
  %173 = trunc i8 %172 to i1
  %174 = load i8, ptr %15, align 1, !range !4, !noundef !5
  %175 = trunc i8 %174 to i1
  %176 = load i8, ptr %16, align 1, !range !4, !noundef !5
  %177 = trunc i8 %176 to i1
  %178 = load i8, ptr %17, align 1, !range !4, !noundef !5
  %179 = trunc i8 %178 to i1
  %180 = load i32, ptr %18, align 4
  %181 = load ptr, ptr %19, align 8
  %182 = load ptr, ptr %20, align 8
  %183 = load ptr, ptr %21, align 8
  %184 = call ptr @make_plain_restrictinfo(ptr noundef %170, ptr noundef %171, ptr noundef null, i1 noundef zeroext %173, i1 noundef zeroext %175, i1 noundef zeroext %177, i1 noundef zeroext %179, i32 noundef %180, ptr noundef %181, ptr noundef %182, ptr noundef %183)
  store ptr %184, ptr %11, align 8
  br label %185

185:                                              ; preds = %169, %166, %89
  %186 = load ptr, ptr %11, align 8
  ret ptr %186
}