; Function Attrs: nounwind uwtable
define internal fastcc ptr @make_sub_restrictinfos(ptr noundef %0, ptr noundef %1, i1 noundef zeroext %2, i1 noundef zeroext %3, i1 noundef zeroext %4, i1 noundef zeroext %5, i32 noundef %6, ptr noundef %7, ptr noundef %8, ptr noundef %9) unnamed_addr #0 {
  %.not.i = icmp eq ptr %1, null
  br i1 %.not.i, label %is_andclause.exit.thread, label %11

11:                                               ; preds = %10
  %12 = load i32, ptr %1, align 4
  %13 = icmp eq i32 %12, 21
  br i1 %13, label %is_orclause.exit, label %is_andclause.exit.thread

is_orclause.exit:                                 ; preds = %11
  %14 = getelementptr inbounds nuw i8, ptr %1, i64 4
  %15 = load i32, ptr %14, align 4
  switch i32 %15, label %is_andclause.exit.thread [
    i32 1, label %16
    i32 0, label %33
  ]

16:                                               ; preds = %is_orclause.exit
  %17 = getelementptr inbounds nuw i8, ptr %1, i64 8
  %18 = load ptr, ptr %17, align 8
  %19 = getelementptr inbounds nuw i8, ptr %18, i64 4
  %.not65 = icmp eq ptr %18, null
  br i1 %.not65, label %._crit_edge90, label %.lr.ph89

.lr.ph89:                                         ; preds = %16
  %20 = getelementptr inbounds nuw i8, ptr %18, i64 16
  %21 = load i32, ptr %19, align 4
  %22 = icmp sgt i32 %21, 0
  br i1 %22, label %.lr.ph98, label %._crit_edge90

._crit_edge90:                                    ; preds = %.lr.ph98, %.lr.ph89, %16
  %.058.lcssa = phi ptr [ null, %16 ], [ null, %.lr.ph89 ], [ %29, %.lr.ph98 ]
  %23 = tail call ptr @make_orclause(ptr noundef %.058.lcssa) #5
  %24 = tail call ptr @make_plain_restrictinfo(ptr noundef %0, ptr noundef nonnull %1, ptr noundef %23, i1 noundef zeroext %2, i1 noundef zeroext %3, i1 noundef zeroext %4, i1 noundef zeroext %5, i32 noundef %6, ptr noundef %7, ptr noundef %8, ptr noundef %9)
  br label %50

.lr.ph98:                                         ; preds = %.lr.ph89, %.lr.ph98
  %indvars.iv102 = phi i64 [ %indvars.iv.next103, %.lr.ph98 ], [ 0, %.lr.ph89 ]
  %.0588796 = phi ptr [ %29, %.lr.ph98 ], [ null, %.lr.ph89 ]
  %25 = load ptr, ptr %20, align 8
  %26 = getelementptr inbounds nuw %union.ListCell, ptr %25, i64 %indvars.iv102
  %27 = load ptr, ptr %26, align 8
  %28 = tail call fastcc ptr @make_sub_restrictinfos(ptr noundef %0, ptr noundef %27, i1 noundef zeroext %2, i1 noundef zeroext %3, i1 noundef zeroext %4, i1 noundef zeroext %5, i32 noundef %6, ptr noundef null, ptr noundef %8, ptr noundef %9)
  %29 = tail call ptr @lappend(ptr noundef %.0588796, ptr noundef %28) #5
  %indvars.iv.next103 = add nuw nsw i64 %indvars.iv102, 1
  %30 = load i32, ptr %19, align 4
  %31 = sext i32 %30 to i64
  %32 = icmp slt i64 %indvars.iv.next103, %31
  br i1 %32, label %.lr.ph98, label %._crit_edge90

33:                                               ; preds = %is_orclause.exit
  %34 = getelementptr inbounds nuw i8, ptr %1, i64 8
  %35 = load ptr, ptr %34, align 8
  %36 = getelementptr inbounds nuw i8, ptr %35, i64 4
  %.not = icmp eq ptr %35, null
  br i1 %.not, label %._crit_edge, label %.lr.ph

.lr.ph:                                           ; preds = %33
  %37 = getelementptr inbounds nuw i8, ptr %35, i64 16
  %38 = load i32, ptr %36, align 4
  %39 = icmp sgt i32 %38, 0
  br i1 %39, label %.lr.ph84, label %._crit_edge

._crit_edge:                                      ; preds = %.lr.ph84, %.lr.ph, %33
  %.060.lcssa = phi ptr [ null, %33 ], [ null, %.lr.ph ], [ %45, %.lr.ph84 ]
  %40 = tail call ptr @make_andclause(ptr noundef %.060.lcssa) #5
  br label %50

.lr.ph84:                                         ; preds = %.lr.ph, %.lr.ph84
  %indvars.iv = phi i64 [ %indvars.iv.next, %.lr.ph84 ], [ 0, %.lr.ph ]
  %.0607783 = phi ptr [ %45, %.lr.ph84 ], [ null, %.lr.ph ]
  %41 = load ptr, ptr %37, align 8
  %42 = getelementptr inbounds nuw %union.ListCell, ptr %41, i64 %indvars.iv
  %43 = load ptr, ptr %42, align 8
  %44 = tail call fastcc ptr @make_sub_restrictinfos(ptr noundef %0, ptr noundef %43, i1 noundef zeroext %2, i1 noundef zeroext %3, i1 noundef zeroext %4, i1 noundef zeroext %5, i32 noundef %6, ptr noundef %7, ptr noundef %8, ptr noundef %9)
  %45 = tail call ptr @lappend(ptr noundef %.0607783, ptr noundef %44) #5
  %indvars.iv.next = add nuw nsw i64 %indvars.iv, 1
  %46 = load i32, ptr %36, align 4
  %47 = sext i32 %46 to i64
  %48 = icmp slt i64 %indvars.iv.next, %47
  br i1 %48, label %.lr.ph84, label %._crit_edge

is_andclause.exit.thread:                         ; preds = %is_orclause.exit, %11, %10
  %49 = tail call ptr @make_plain_restrictinfo(ptr noundef %0, ptr noundef %1, ptr noundef null, i1 noundef zeroext %2, i1 noundef zeroext %3, i1 noundef zeroext %4, i1 noundef zeroext %5, i32 noundef %6, ptr noundef %7, ptr noundef %8, ptr noundef %9)
  br label %50

50:                                               ; preds = %is_andclause.exit.thread, %._crit_edge, %._crit_edge90
  %.0 = phi ptr [ %24, %._crit_edge90 ], [ %40, %._crit_edge ], [ %49, %is_andclause.exit.thread ]
  ret ptr %.0
}